target datalayout = "e-m:e-p270:32:32-p271:32:32-p272:64:64-i64:64-i128:128-f80:128-n8:16:32:64-S128"
target triple = "x86_64-pc-linux-gnu"

%"struct.faiss::IndexFlatCodes" = type { %"struct.faiss::Index.base", i64, %"class.std::vector" }
%"struct.faiss::Index.base" = type <{ ptr, i32, [4 x i8], i64, i8, i8, [2 x i8], i32, float }>
%"class.std::vector" = type { %"struct.std::_Vector_base" }
%"struct.std::_Vector_base" = type { %"struct.std::_Vector_base<unsigned char, std::allocator<unsigned char>>::_Vector_impl" }
%"struct.std::_Vector_base<unsigned char, std::allocator<unsigned char>>::_Vector_impl" = type { %"struct.std::_Vector_base<unsigned char, std::allocator<unsigned char>>::_Vector_impl_data" }
%"struct.std::_Vector_base<unsigned char, std::allocator<unsigned char>>::_Vector_impl_data" = type { ptr, ptr, ptr }
%"class.std::__cxx11::basic_string" = type { %"struct.std::__cxx11::basic_string<char>::_Alloc_hider", i64, %union.anon }
%"struct.std::__cxx11::basic_string<char>::_Alloc_hider" = type { ptr }
%union.anon = type { i64, [8 x i8] }
%"struct.faiss::Index" = type <{ ptr, i32, [4 x i8], i64, i8, i8, [2 x i8], i32, float, [4 x i8] }>

@.str = private unnamed_addr constant [19 x i8] c"Error: '%s' failed\00", align 1
@.str.2 = private unnamed_addr constant [114 x i8] c"generated/home/dtcxzyw/WorkSpace/Projects/compilers/llvm-opt-benchmark/bench/faiss/faiss/faiss/IndexFlatCodes.cpp\00", align 1
@_ZTIN5faiss14FaissExceptionE = external constant ptr
@.str.4 = private unnamed_addr constant [42 x i8] c"ni == 0 || (i0 >= 0 && i0 + ni <= ntotal)\00", align 1
@__PRETTY_FUNCTION__._ZNK5faiss14IndexFlatCodes13reconstruct_nEllPf = private unnamed_addr constant [79 x i8] c"virtual void faiss::IndexFlatCodes::reconstruct_n(idx_t, idx_t, float *) const\00", align 1

; Function Attrs: mustprogress nounwind uwtable
define linkonce_odr noundef ptr @_ZNKSt6vectorIhSaIhEE11_M_data_ptrIhEEPT_S4_(ptr noundef nonnull align 8 dereferenceable(24) %0, ptr noundef %1) #0 comdat align 2 {
  %3 = alloca ptr, align 8
  %4 = alloca ptr, align 8
  store ptr %0, ptr %3, align 8
  store ptr %1, ptr %4, align 8
  %5 = load ptr, ptr %4, align 8
  ret ptr %5
}

; Function Attrs: mustprogress nounwind uwtable
define linkonce_odr noundef ptr @_ZNKSt6vectorIhSaIhEE4dataEv(ptr noundef nonnull align 8 dereferenceable(24) %0) #0 comdat align 2 {
  %2 = alloca ptr, align 8
  store ptr %0, ptr %2, align 8
  %3 = load ptr, ptr %2, align 8
  %4 = getelementptr inbounds %"struct.std::_Vector_base", ptr %3, i32 0, i32 0
  %5 = getelementptr inbounds %"struct.std::_Vector_base<unsigned char, std::allocator<unsigned char>>::_Vector_impl_data", ptr %4, i32 0, i32 0
  %6 = load ptr, ptr %5, align 8
  %7 = call noundef ptr @_ZNKSt6vectorIhSaIhEE11_M_data_ptrIhEEPT_S4_(ptr noundef nonnull align 8 dereferenceable(24) %3, ptr noundef %6) #12
  ret ptr %7
}

; Function Attrs: mustprogress uwtable
define void @_ZNK5faiss14IndexFlatCodes13reconstruct_nEllPf(ptr noundef nonnull align 8 dereferenceable(72) %0, i64 noundef %1, i64 noundef %2, ptr noundef %3) unnamed_addr #2 align 2 personality ptr @__gxx_personality_v0 {
  %5 = alloca ptr, align 8
  %6 = alloca i64, align 8
  %7 = alloca i64, align 8
  %8 = alloca ptr, align 8
  %9 = alloca %"class.std::__cxx11::basic_string", align 8
  %10 = alloca i32, align 4
  %11 = alloca ptr, align 8
  %12 = alloca i32, align 4
  store ptr %0, ptr %5, align 8
  store i64 %1, ptr %6, align 8
  store i64 %2, ptr %7, align 8
  store ptr %3, ptr %8, align 8
  %13 = load ptr, ptr %5, align 8
  br label %14

14:                                               ; preds = %4
  %15 = load i64, ptr %7, align 8
  %16 = icmp eq i64 %15, 0
  br i1 %16, label %50, label %17

17:                                               ; preds = %14
  %18 = load i64, ptr %6, align 8
  %19 = icmp sge i64 %18, 0
  br i1 %19, label %20, label %27

20:                                               ; preds = %17
  %21 = load i64, ptr %6, align 8
  %22 = load i64, ptr %7, align 8
  %23 = add nsw i64 %21, %22
  %24 = getelementptr inbounds %"struct.faiss::Index", ptr %13, i32 0, i32 3
  %25 = load i64, ptr %24, align 8
  %26 = icmp sle i64 %23, %25
  br i1 %26, label %50, label %27

27:                                               ; preds = %20, %17
  br label %28

28:                                               ; preds = %27
  call void @_ZNSt7__cxx1112basic_stringIcSt11char_traitsIcESaIcEEC1Ev(ptr noundef nonnull align 8 dereferenceable(32) %9) #12
  %29 = call i32 (ptr, i64, ptr, ...) @snprintf(ptr noundef null, i64 noundef 0, ptr noundef @.str, ptr noundef @.str.4) #12
  store i32 %29, ptr %10, align 4
  %30 = load i32, ptr %10, align 4
  %31 = add nsw i32 %30, 1
  %32 = sext i32 %31 to i64
  invoke void @_ZNSt7__cxx1112basic_stringIcSt11char_traitsIcESaIcEE6resizeEm(ptr noundef nonnull align 8 dereferenceable(32) %9, i64 noundef %32)
          to label %33 unwind label %40

33:                                               ; preds = %28
  %34 = invoke noundef nonnull align 1 dereferenceable(1) ptr @_ZNSt7__cxx1112basic_stringIcSt11char_traitsIcESaIcEEixEm(ptr noundef nonnull align 8 dereferenceable(32) %9, i64 noundef 0)
          to label %35 unwind label %40

35:                                               ; preds = %33
  %36 = call noundef i64 @_ZNKSt7__cxx1112basic_stringIcSt11char_traitsIcESaIcEE4sizeEv(ptr noundef nonnull align 8 dereferenceable(32) %9) #12
  %37 = call i32 (ptr, i64, ptr, ...) @snprintf(ptr noundef %34, i64 noundef %36, ptr noundef @.str, ptr noundef @.str.4) #12
  %38 = call ptr @__cxa_allocate_exception(i64 40) #12
  invoke void @_ZN5faiss14FaissExceptionC1ERKNSt7__cxx1112basic_stringIcSt11char_traitsIcESaIcEEEPKcSA_i(ptr noundef nonnull align 8 dereferenceable(40) %38, ptr noundef nonnull align 8 dereferenceable(32) %9, ptr noundef @__PRETTY_FUNCTION__._ZNK5faiss14IndexFlatCodes13reconstruct_nEllPf, ptr noundef @.str.2, i32 noundef 65)
          to label %39 unwind label %44

39:                                               ; preds = %35
  invoke void @__cxa_throw(ptr %38, ptr @_ZTIN5faiss14FaissExceptionE, ptr @_ZN5faiss14FaissExceptionD2Ev) #14
          to label %69 unwind label %40

40:                                               ; preds = %39, %33, %28
  %41 = landingpad { ptr, i32 }
          cleanup
  %42 = extractvalue { ptr, i32 } %41, 0
  store ptr %42, ptr %11, align 8
  %43 = extractvalue { ptr, i32 } %41, 1
  store i32 %43, ptr %12, align 4
  br label %48

44:                                               ; preds = %35
  %45 = landingpad { ptr, i32 }
          cleanup
  %46 = extractvalue { ptr, i32 } %45, 0
  store ptr %46, ptr %11, align 8
  %47 = extractvalue { ptr, i32 } %45, 1
  store i32 %47, ptr %12, align 4
  call void @__cxa_free_exception(ptr %38) #12
  br label %48

48:                                               ; preds = %44, %40
  call void @_ZNSt7__cxx1112basic_stringIcSt11char_traitsIcESaIcEED1Ev(ptr noundef nonnull align 8 dereferenceable(32) %9) #12
  br label %64

49:                                               ; No predecessors!
  br label %50

50:                                               ; preds = %49, %20, %14
  br label %51

51:                                               ; preds = %50
  %52 = load i64, ptr %7, align 8
  %53 = getelementptr inbounds %"struct.faiss::IndexFlatCodes", ptr %13, i32 0, i32 2
  %54 = call noundef ptr @_ZNKSt6vectorIhSaIhEE4dataEv(ptr noundef nonnull align 8 dereferenceable(24) %53) #12
  %55 = load i64, ptr %6, align 8
  %56 = getelementptr inbounds %"struct.faiss::IndexFlatCodes", ptr %13, i32 0, i32 1
  %57 = load i64, ptr %56, align 8
  %58 = mul i64 %55, %57
  %59 = getelementptr inbounds i8, ptr %54, i64 %58
  %60 = load ptr, ptr %8, align 8
  %61 = load ptr, ptr %13, align 8
  %62 = getelementptr inbounds ptr, ptr %61, i64 19
  %63 = load ptr, ptr %62, align 8
  call void %63(ptr noundef nonnull align 8 dereferenceable(36) %13, i64 noundef %52, ptr noundef %59, ptr noundef %60)
  ret void

64:                                               ; preds = %48
  %65 = load ptr, ptr %11, align 8
  %66 = load i32, ptr %12, align 4
  %67 = insertvalue { ptr, i32 } poison, ptr %65, 0
  %68 = insertvalue { ptr, i32 } %67, i32 %66, 1
  resume { ptr, i32 } %68

69:                                               ; preds = %39
  unreachable
}