; Function Attrs: mustprogress uwtable
define void @_ZNK5faiss14IndexFlatCodes13reconstruct_nEllPf(ptr noundef nonnull align 8 dereferenceable(72) %0, i64 noundef %1, i64 noundef %2, ptr noundef %3) unnamed_addr #2 align 2 personality ptr @__gxx_personality_v0 {
  %5 = alloca %"class.std::__cxx11::basic_string", align 8
  %6 = icmp eq i64 %2, 0
  br i1 %6, label %29, label %7

7:                                                ; preds = %4
  %8 = icmp sgt i64 %1, -1
  br i1 %8, label %9, label %13

9:                                                ; preds = %7
  %10 = add nsw i64 %2, %1
  %11 = getelementptr inbounds i8, ptr %0, i64 16
  %12 = load i64, ptr %11, align 8
  %.not = icmp sgt i64 %10, %12
  br i1 %.not, label %13, label %29

13:                                               ; preds = %7, %9
  call void @_ZNSt7__cxx1112basic_stringIcSt11char_traitsIcESaIcEEC1Ev(ptr noundef nonnull align 8 dereferenceable(32) %5) #21
  %14 = call i32 (ptr, i64, ptr, ...) @snprintf(ptr noundef null, i64 noundef 0, ptr noundef nonnull @.str, ptr noundef nonnull @.str.4) #21
  %15 = add nsw i32 %14, 1
  %16 = sext i32 %15 to i64
  invoke void @_ZNSt7__cxx1112basic_stringIcSt11char_traitsIcESaIcEE6resizeEm(ptr noundef nonnull align 8 dereferenceable(32) %5, i64 noundef %16)
          to label %17 unwind label %24

17:                                               ; preds = %13
  %18 = invoke noundef nonnull align 1 dereferenceable(1) ptr @_ZNSt7__cxx1112basic_stringIcSt11char_traitsIcESaIcEEixEm(ptr noundef nonnull align 8 dereferenceable(32) %5, i64 noundef 0)
          to label %19 unwind label %24

19:                                               ; preds = %17
  %20 = call noundef i64 @_ZNKSt7__cxx1112basic_stringIcSt11char_traitsIcESaIcEE4sizeEv(ptr noundef nonnull align 8 dereferenceable(32) %5) #21
  %21 = call i32 (ptr, i64, ptr, ...) @snprintf(ptr noundef nonnull %18, i64 noundef %20, ptr noundef nonnull @.str, ptr noundef nonnull @.str.4) #21
  %22 = call ptr @__cxa_allocate_exception(i64 40) #21
  invoke void @_ZN5faiss14FaissExceptionC1ERKNSt7__cxx1112basic_stringIcSt11char_traitsIcESaIcEEEPKcSA_i(ptr noundef nonnull align 8 dereferenceable(40) %22, ptr noundef nonnull align 8 dereferenceable(32) %5, ptr noundef nonnull @__PRETTY_FUNCTION__._ZNK5faiss14IndexFlatCodes13reconstruct_nEllPf, ptr noundef nonnull @.str.2, i32 noundef 65)
          to label %23 unwind label %26

23:                                               ; preds = %19
  invoke void @__cxa_throw(ptr nonnull %22, ptr nonnull @_ZTIN5faiss14FaissExceptionE, ptr nonnull @_ZN5faiss14FaissExceptionD2Ev) #23
          to label %39 unwind label %24

24:                                               ; preds = %23, %17, %13
  %25 = landingpad { ptr, i32 }
          cleanup
  br label %28

26:                                               ; preds = %19
  %27 = landingpad { ptr, i32 }
          cleanup
  call void @__cxa_free_exception(ptr %22) #21
  br label %28

28:                                               ; preds = %26, %24
  %.pn = phi { ptr, i32 } [ %25, %24 ], [ %27, %26 ]
  call void @_ZNSt7__cxx1112basic_stringIcSt11char_traitsIcESaIcEED1Ev(ptr noundef nonnull align 8 dereferenceable(32) %5) #21
  resume { ptr, i32 } %.pn

29:                                               ; preds = %4, %9
  %30 = getelementptr inbounds i8, ptr %0, i64 48
  %31 = load ptr, ptr %30, align 8
  %32 = getelementptr inbounds i8, ptr %0, i64 40
  %33 = load i64, ptr %32, align 8
  %34 = mul i64 %33, %1
  %35 = getelementptr inbounds i8, ptr %31, i64 %34
  %36 = load ptr, ptr %0, align 8
  %37 = getelementptr inbounds i8, ptr %36, i64 152
  %38 = load ptr, ptr %37, align 8
  tail call void %38(ptr noundef nonnull align 8 dereferenceable(36) %0, i64 noundef %2, ptr noundef %35, ptr noundef %3)
  ret void

39:                                               ; preds = %23
  unreachable
}